target datalayout = "e-m:e-p270:32:32-p271:32:32-p272:64:64-i64:64-i128:128-f80:128-n8:16:32:64-S128"
target triple = "x86_64-pc-linux-gnu"

%struct.lua_TValue = type { %union.Value, i32 }
%union.Value = type { ptr }
%struct.lua_State = type { ptr, i8, i8, i8, ptr, ptr, ptr, ptr, ptr, ptr, ptr, ptr, ptr, i32, i32, i16, i16, i8, i8, i32, i32, ptr, %struct.lua_TValue, %struct.lua_TValue, ptr, ptr, ptr, i64 }
%struct.CallInfo = type { ptr, ptr, ptr, ptr, i32, i32 }

; Function Attrs: nounwind uwtable
define dso_local void @lua_call(ptr noundef %0, i32 noundef %1, i32 noundef %2) #0 {
  %4 = alloca ptr, align 8
  %5 = alloca i32, align 4
  %6 = alloca i32, align 4
  %7 = alloca ptr, align 8
  store ptr %0, ptr %4, align 8, !tbaa !4
  store i32 %1, ptr %5, align 4, !tbaa !25
  store i32 %2, ptr %6, align 4, !tbaa !25
  call void @llvm.lifetime.start.p0(i64 8, ptr %7) #6
  %8 = load ptr, ptr %4, align 8, !tbaa !4
  %9 = getelementptr inbounds nuw %struct.lua_State, ptr %8, i32 0, i32 4
  %10 = load ptr, ptr %9, align 8, !tbaa !11
  %11 = load i32, ptr %5, align 4, !tbaa !25
  %12 = add nsw i32 %11, 1
  %13 = sext i32 %12 to i64
  %14 = sub i64 0, %13
  %15 = getelementptr inbounds %struct.lua_TValue, ptr %10, i64 %14
  store ptr %15, ptr %7, align 8, !tbaa !9
  %16 = load ptr, ptr %4, align 8, !tbaa !4
  %17 = load ptr, ptr %7, align 8, !tbaa !9
  %18 = load i32, ptr %6, align 4, !tbaa !25
  call void @luaD_call(ptr noundef %16, ptr noundef %17, i32 noundef %18)
  %19 = load i32, ptr %6, align 4, !tbaa !25
  %20 = icmp eq i32 %19, -1
  br i1 %20, label %21, label %39

21:                                               ; preds = %3
  %22 = load ptr, ptr %4, align 8, !tbaa !4
  %23 = getelementptr inbounds nuw %struct.lua_State, ptr %22, i32 0, i32 4
  %24 = load ptr, ptr %23, align 8, !tbaa !11
  %25 = load ptr, ptr %4, align 8, !tbaa !4
  %26 = getelementptr inbounds nuw %struct.lua_State, ptr %25, i32 0, i32 7
  %27 = load ptr, ptr %26, align 8, !tbaa !28
  %28 = getelementptr inbounds nuw %struct.CallInfo, ptr %27, i32 0, i32 2
  %29 = load ptr, ptr %28, align 8, !tbaa !29
  %30 = icmp uge ptr %24, %29
  br i1 %30, label %31, label %39

31:                                               ; preds = %21
  %32 = load ptr, ptr %4, align 8, !tbaa !4
  %33 = getelementptr inbounds nuw %struct.lua_State, ptr %32, i32 0, i32 4
  %34 = load ptr, ptr %33, align 8, !tbaa !11
  %35 = load ptr, ptr %4, align 8, !tbaa !4
  %36 = getelementptr inbounds nuw %struct.lua_State, ptr %35, i32 0, i32 7
  %37 = load ptr, ptr %36, align 8, !tbaa !28
  %38 = getelementptr inbounds nuw %struct.CallInfo, ptr %37, i32 0, i32 2
  store ptr %34, ptr %38, align 8, !tbaa !29
  br label %39

39:                                               ; preds = %31, %21, %3
  call void @llvm.lifetime.end.p0(i64 8, ptr %7) #6
  ret void
}